Certificate:
    Data:
        Version: 3 (0x2)
        Serial Number:
            cd:70:00:10:77:6c:8d:91:ea:f0:b5:de:f5:20:01:71
        Signature Algorithm: sha256WithRSAEncryption
        Issuer: CN=1918975
        Validity
            Not Before: Dec 21 02:43:45 2024 GMT
            Not After : Mar 26 02:43:45 2027 GMT
        Subject: CN=client_2
        Subject Public Key Info:
            Public Key Algorithm: rsaEncryption
                Public-Key: (2048 bit)
                Modulus:
                    00:a3:90:68:4e:8a:2f:1f:1e:0e:bf:68:56:74:78:
                    4e:2c:50:2c:bb:a9:4c:01:8a:27:50:53:ea:bf:74:
                    69:be:37:bb:20:97:0c:a2:1b:1f:b9:d9:4b:9c:5a:
                    b3:cb:d6:2c:62:d1:cd:2a:a4:79:f2:59:be:f6:af:
                    6e:4a:04:7c:51:ad:12:24:2e:98:75:d7:89:01:1e:
                    12:c9:d3:8a:21:cd:70:c7:c0:47:1f:54:1c:92:33:
                    9f:45:5b:54:16:46:8d:ec:58:32:47:20:9d:70:6b:
                    27:51:ac:e6:57:0d:a6:19:ee:9d:a0:41:d8:c2:32:
                    e8:74:90:88:d9:44:41:27:fb:03:40:99:21:1b:4e:
                    16:e8:38:8a:14:4b:d8:f7:2f:28:22:5e:4f:24:99:
                    ab:0c:64:59:81:17:ca:bd:77:3d:f9:a5:45:57:84:
                    1a:f5:de:65:16:d7:60:95:2a:fa:3a:08:81:69:5d:
                    36:f3:03:3c:68:19:4c:a7:1c:35:10:c0:57:ff:81:
                    dd:34:c9:f4:07:cd:01:b5:e7:be:ca:07:bc:86:55:
                    35:0f:e8:38:97:af:88:eb:c3:29:31:91:9e:29:72:
                    7d:99:9c:94:b3:b1:d0:ad:8f:8c:1e:36:d6:be:44:
                    9c:d9:7a:f0:ad:54:ab:d0:3d:bc:ff:39:a4:a5:cd:
                    9c:f5
                Exponent: 65537 (0x10001)
        X509v3 extensions:
            X509v3 Basic Constraints: 
                CA:FALSE
            X509v3 Subject Key Identifier: 
                9E:AA:25:9D:1E:84:DC:61:66:58:84:75:8B:9C:D8:61:45:B6:27:18
            X509v3 Authority Key Identifier: 
                keyid:C1:4F:C1:58:2F:AB:34:CA:33:77:4C:CD:EE:2B:BC:A2:E7:09:B0:B7
                DirName:/CN=1918975
                serial:3A:65:07:3E:8C:78:ED:AA:CA:49:12:E6:7A:AD:43:F0:2F:81:71:5D
            X509v3 Extended Key Usage: 
                TLS Web Client Authentication
            X509v3 Key Usage: 
                Digital Signature
    Signature Algorithm: sha256WithRSAEncryption
    Signature Value:
        08:32:53:b9:1d:38:98:6d:a0:8e:13:1f:b0:f2:29:5d:35:ca:
        6e:e3:f5:18:87:13:c5:72:a2:42:40:97:ff:a1:a0:da:e4:b2:
        39:db:6b:e8:71:b5:27:4d:95:24:db:2a:84:4c:20:55:df:b6:
        0b:e5:4e:65:a4:bb:b5:90:3f:28:49:6b:f4:d9:7f:2e:00:f1:
        12:71:75:28:1b:46:3a:e4:6f:ae:18:75:29:5f:34:50:b8:07:
        f5:99:94:ae:fc:66:e2:ed:0f:b0:bb:5d:26:ca:a0:dc:7b:34:
        e2:48:1a:f2:6c:22:a1:aa:45:56:4e:c5:c8:ec:78:31:6c:3e:
        9c:83:63:f6:8d:67:6a:05:ed:0f:83:b6:ca:ea:c9:60:8e:78:
        ed:cc:95:4c:e7:c5:e2:37:9c:9b:8f:20:41:18:58:64:a1:c6:
        ae:db:ac:cd:c6:f9:2d:e1:3b:a4:28:a5:fd:dd:01:57:a4:7c:
        26:39:ea:85:62:06:ca:16:a9:08:b2:a7:1f:ef:cb:83:7d:0e:
        d2:c4:4d:cd:ae:8e:f5:13:07:ab:53:c6:73:f7:5f:f1:a5:74:
        9e:6c:ae:02:68:3f:4d:02:d3:cf:7d:f5:99:8b:52:d3:0b:6e:
        26:44:71:f0:be:43:25:dd:f5:b4:15:b5:82:84:0a:13:3b:bb:
        17:79:4c:46
-----BEGIN CERTIFICATE-----
MIIDTzCCAjegAwIBAgIRAM1wABB3bI2R6vC13vUgAXEwDQYJKoZIhvcNAQELBQAw
EjEQMA4GA1UEAwwHMTkxODk3NTAeFw0yNDEyMjEwMjQzNDVaFw0yNzAzMjYwMjQz
NDVaMBMxETAPBgNVBAMMCGNsaWVudF8yMIIBIjANBgkqhkiG9w0BAQEFAAOCAQ8A
MIIBCgKCAQEAo5BoToovHx4Ov2hWdHhOLFAsu6lMAYonUFPqv3Rpvje7IJcMohsf
udlLnFqzy9YsYtHNKqR58lm+9q9uSgR8Ua0SJC6YddeJAR4SydOKIc1wx8BHH1Qc
kjOfRVtUFkaN7FgyRyCdcGsnUazmVw2mGe6doEHYwjLodJCI2URBJ/sDQJkhG04W
6DiKFEvY9y8oIl5PJJmrDGRZgRfKvXc9+aVFV4Qa9d5lFtdglSr6OgiBaV028wM8
aBlMpxw1EMBX/4HdNMn0B80Btee+yge8hlU1D+g4l6+I68MpMZGeKXJ9mZyUs7HQ
rY+MHjbWvkSc2XrwrVSr0D28/zmkpc2c9QIDAQABo4GeMIGbMAkGA1UdEwQCMAAw
HQYDVR0OBBYEFJ6qJZ0ehNxhZliEdYuc2GFFticYME0GA1UdIwRGMESAFMFPwVgv
qzTKM3dMze4rvKLnCbC3oRakFDASMRAwDgYDVQQDDAcxOTE4OTc1ghQ6ZQc+jHjt
qspJEuZ6rUPwL4FxXTATBgNVHSUEDDAKBggrBgEFBQcDAjALBgNVHQ8EBAMCB4Aw
DQYJKoZIhvcNAQELBQADggEBAAgyU7kdOJhtoI4TH7DyKV01ym7j9RiHE8VyokJA
l/+hoNrksjnba+hxtSdNlSTbKoRMIFXftgvlTmWku7WQPyhJa/TZfy4A8RJxdSgb
Rjrkb64YdSlfNFC4B/WZlK78ZuLtD7C7XSbKoNx7NOJIGvJsIqGqRVZOxcjseDFs
PpyDY/aNZ2oF7Q+DtsrqyWCOeO3MlUznxeI3nJuPIEEYWGShxq7brM3G+S3hO6Qo
pf3dAVekfCY56oViBsoWqQiypx/vy4N9DtLETc2ujvUTB6tTxnP3X/GldJ5srgJo
P00C08999ZmLUtMLbiZEcfC+QyXd9bQVtYKEChM7uxd5TEY=
-----END CERTIFICATE-----
