Certificate:
    Data:
        Version: 3 (0x2)
        Serial Number:
            28:0f:93:46:d3:05:4f:09:14:69:68:9c:0f:58:13:99
        Signature Algorithm: sha256WithRSAEncryption
        Issuer: CN=my_rsa
        Validity
            Not Before: Dec 18 19:58:05 2023 GMT
            Not After : Dec  2 19:58:05 2026 GMT
        Subject: CN=pc2
        Subject Public Key Info:
            Public Key Algorithm: rsaEncryption
                RSA Public-Key: (2048 bit)
                Modulus:
                    00:fb:76:c5:74:05:e3:f5:b3:6f:ad:82:58:e6:7b:
                    b8:5e:8f:e0:8e:7a:44:40:b5:2a:8b:89:bd:e9:02:
                    9c:cc:a1:fd:76:a7:7e:50:76:47:c1:0c:8c:41:0b:
                    9b:62:6d:d8:59:ca:cf:5b:f9:1f:a6:5b:53:22:b5:
                    95:23:ff:9d:6b:b0:3b:8f:89:7e:96:fd:3b:82:24:
                    2b:aa:51:53:8e:c5:18:62:3d:4d:b5:b3:ac:a5:5b:
                    86:f8:f9:29:2e:34:3f:cc:ea:93:1f:26:5e:68:c1:
                    b7:63:76:78:a9:eb:0d:97:e0:03:8e:e9:74:3e:ee:
                    c6:76:ce:86:21:9d:2f:ac:bc:e2:2a:26:5e:f5:6c:
                    5f:2b:b2:bb:29:b1:76:1d:6c:30:64:ff:1a:d4:b2:
                    a1:50:43:0c:76:7d:7f:80:a2:d2:21:4c:e0:d2:5a:
                    02:38:e5:eb:11:2e:84:f5:7b:cb:a0:83:03:80:7d:
                    0b:01:39:ce:81:25:f7:96:34:1e:10:37:66:dd:54:
                    5b:88:79:bf:aa:5f:68:ea:48:83:49:71:b8:fa:3b:
                    2b:ba:28:1e:77:25:c5:5f:06:d7:c8:c3:27:dc:23:
                    e8:27:6f:81:e9:7b:b5:7a:10:99:6f:99:b8:2a:e4:
                    8f:dd:b1:95:dc:39:18:16:f9:94:78:9d:11:d1:73:
                    7c:17
                Exponent: 65537 (0x10001)
        X509v3 extensions:
            X509v3 Basic Constraints: 
                CA:FALSE
            X509v3 Subject Key Identifier: 
                A6:18:35:97:99:57:6D:AE:B6:8D:CC:63:80:0E:11:7E:34:8D:8D:F4
            X509v3 Authority Key Identifier: 
                keyid:2F:58:B0:40:CA:2F:8F:81:DC:BB:D1:E3:CF:49:B8:13:05:E4:98:66
                DirName:/CN=my_rsa
                serial:0F:A7:E5:56:62:17:28:B9:45:9F:74:5D:5D:1A:C8:B0:3D:6E:26:9F

            X509v3 Extended Key Usage: 
                TLS Web Client Authentication
            X509v3 Key Usage: 
                Digital Signature
    Signature Algorithm: sha256WithRSAEncryption
         04:d4:60:ac:d4:a8:62:19:d5:5f:68:73:2d:1d:73:dd:d0:b7:
         3c:7e:a4:a1:df:dd:01:13:2d:f0:a6:df:80:1c:cd:87:3c:ac:
         57:7d:ea:4c:b4:87:d2:73:da:56:a1:4b:31:68:c5:b2:23:86:
         5b:8d:f4:96:08:fc:70:86:6c:d6:85:1d:42:06:43:6c:44:c8:
         31:21:94:cc:89:20:05:be:95:25:67:8e:31:4c:d5:c8:56:80:
         6e:bd:db:75:99:a9:5c:25:69:a6:32:de:ec:33:08:e7:45:ce:
         d1:25:a8:d6:1b:43:f6:44:e8:c3:21:9e:1d:6f:50:e1:0c:8c:
         49:11:70:3e:9e:b7:a5:ca:35:ca:02:4f:89:6b:cf:3f:c9:4c:
         8e:d8:c4:00:37:39:14:47:6d:73:a6:27:80:a1:d5:be:75:04:
         99:79:4e:21:0a:62:30:4a:8c:12:ab:2b:51:ea:e8:48:db:93:
         ca:89:b8:3d:59:c0:01:16:f6:39:cd:9c:a3:76:21:cf:4a:41:
         a8:1e:05:09:81:8c:ae:c7:90:88:a6:81:df:95:ba:7e:0b:72:
         b4:d4:7f:11:d3:a9:2a:68:c9:7d:15:4e:7e:d1:0c:ed:6c:2a:
         28:4f:1d:e0:14:4b:70:77:17:42:5d:9b:79:76:a3:30:f8:9d:
         77:f1:83:1d
-----BEGIN CERTIFICATE-----
MIIDRzCCAi+gAwIBAgIQKA+TRtMFTwkUaWicD1gTmTANBgkqhkiG9w0BAQsFADAR
MQ8wDQYDVQQDDAZteV9yc2EwHhcNMjMxMjE4MTk1ODA1WhcNMjYxMjAyMTk1ODA1
WjAOMQwwCgYDVQQDDANwYzIwggEiMA0GCSqGSIb3DQEBAQUAA4IBDwAwggEKAoIB
AQD7dsV0BeP1s2+tgljme7hej+COekRAtSqLib3pApzMof12p35QdkfBDIxBC5ti
bdhZys9b+R+mW1MitZUj/51rsDuPiX6W/TuCJCuqUVOOxRhiPU21s6ylW4b4+Sku
ND/M6pMfJl5owbdjdnip6w2X4AOO6XQ+7sZ2zoYhnS+svOIqJl71bF8rsrspsXYd
bDBk/xrUsqFQQwx2fX+AotIhTODSWgI45esRLoT1e8uggwOAfQsBOc6BJfeWNB4Q
N2bdVFuIeb+qX2jqSINJcbj6Oyu6KB53JcVfBtfIwyfcI+gnb4Hpe7V6EJlvmbgq
5I/dsZXcORgW+ZR4nRHRc3wXAgMBAAGjgZ0wgZowCQYDVR0TBAIwADAdBgNVHQ4E
FgQUphg1l5lXba62jcxjgA4RfjSNjfQwTAYDVR0jBEUwQ4AUL1iwQMovj4Hcu9Hj
z0m4EwXkmGahFaQTMBExDzANBgNVBAMMBm15X3JzYYIUD6flVmIXKLlFn3RdXRrI
sD1uJp8wEwYDVR0lBAwwCgYIKwYBBQUHAwIwCwYDVR0PBAQDAgeAMA0GCSqGSIb3
DQEBCwUAA4IBAQAE1GCs1KhiGdVfaHMtHXPd0Lc8fqSh390BEy3wpt+AHM2HPKxX
fepMtIfSc9pWoUsxaMWyI4ZbjfSWCPxwhmzWhR1CBkNsRMgxIZTMiSAFvpUlZ44x
TNXIVoBuvdt1malcJWmmMt7sMwjnRc7RJajWG0P2ROjDIZ4db1DhDIxJEXA+nrel
yjXKAk+Ja88/yUyO2MQANzkUR21zpieAodW+dQSZeU4hCmIwSowSqytR6uhI25PK
ibg9WcABFvY5zZyjdiHPSkGoHgUJgYyux5CIpoHflbp+C3K01H8R06kqaMl9FU5+
0QztbCooTx3gFEtwdxdCXZt5dqMw+J138YMd
-----END CERTIFICATE-----
