Certificate:
    Data:
        Version: 3 (0x2)
        Serial Number:
            07:c8:68:04:07:4b:5b:cd:0e:7a:f7:fc:b1:a5:69:61
        Signature Algorithm: sha256WithRSAEncryption
        Issuer: CN=my_rsa
        Validity
            Not Before: Dec 18 19:52:12 2023 GMT
            Not After : Dec  2 19:52:12 2026 GMT
        Subject: CN=myserver
        Subject Public Key Info:
            Public Key Algorithm: rsaEncryption
                RSA Public-Key: (2048 bit)
                Modulus:
                    00:eb:d0:42:bb:e5:2d:ce:37:8f:17:60:d6:0c:f6:
                    d9:7f:0a:c6:45:10:33:4a:f2:5a:93:ef:c6:a5:dc:
                    04:c9:a7:18:a1:27:e3:4f:61:12:1f:76:4b:95:42:
                    9a:67:e4:24:43:e2:55:84:51:b8:cb:1c:fc:cb:05:
                    6b:6e:c2:61:5e:17:1e:cb:4c:fe:1e:d3:0a:aa:c2:
                    2d:19:42:71:23:b2:87:84:b4:ff:4a:b5:4a:ca:df:
                    91:98:15:3c:e8:96:ad:12:79:b4:51:5d:01:fe:c3:
                    35:e5:e9:dd:50:c7:68:f4:3a:9c:21:41:8c:0d:42:
                    02:2a:0f:9d:65:ee:0f:ad:cd:da:38:9f:54:92:9e:
                    64:e1:c2:bf:32:93:36:c0:93:b5:2a:43:c6:d1:68:
                    b8:b6:0b:73:c7:dc:72:5e:15:8e:d9:51:a4:2c:91:
                    f6:3f:e7:f4:2b:10:ab:87:ab:af:c2:d5:d3:4d:11:
                    9f:10:00:3e:07:f3:7a:97:31:e1:2e:96:1a:19:5f:
                    d6:86:cf:78:3f:7e:38:c4:94:e0:bd:f2:49:36:df:
                    85:97:1e:10:d5:b8:7e:3f:3a:ba:3c:a8:af:20:90:
                    40:f7:0b:33:aa:3b:f1:b9:1f:0f:f1:28:5e:8a:ce:
                    bd:a0:ba:0a:ae:9c:c6:77:6d:24:52:7e:5d:6a:a3:
                    58:81
                Exponent: 65537 (0x10001)
        X509v3 extensions:
            X509v3 Basic Constraints: 
                CA:FALSE
            X509v3 Subject Key Identifier: 
                95:E0:91:E3:C2:DF:92:50:DC:D3:4D:B1:57:87:F7:5A:46:B0:5D:7F
            X509v3 Authority Key Identifier: 
                keyid:2F:58:B0:40:CA:2F:8F:81:DC:BB:D1:E3:CF:49:B8:13:05:E4:98:66
                DirName:/CN=my_rsa
                serial:0F:A7:E5:56:62:17:28:B9:45:9F:74:5D:5D:1A:C8:B0:3D:6E:26:9F

            X509v3 Extended Key Usage: 
                TLS Web Server Authentication
            X509v3 Key Usage: 
                Digital Signature, Key Encipherment
            X509v3 Subject Alternative Name: 
                DNS:myserver
    Signature Algorithm: sha256WithRSAEncryption
         99:c7:19:a8:96:7c:60:8c:01:e9:58:d5:f9:a5:56:29:82:dd:
         2e:40:6f:83:53:ef:4f:3d:03:ab:98:bd:9f:15:11:3d:e5:da:
         b4:79:87:93:48:4e:23:c9:6b:63:76:71:d3:39:73:b3:a3:ac:
         70:0c:7f:0f:99:dc:b5:d2:c5:6b:66:ca:ea:54:52:5a:bb:8b:
         1a:4e:a1:23:40:9a:35:61:4c:14:0d:66:82:58:41:74:24:70:
         1e:a4:90:bd:86:81:7b:90:ef:7e:17:d3:e9:2e:bd:d5:79:95:
         c1:96:79:f3:fa:32:ed:5d:fa:ef:6e:c0:f3:4b:3c:ea:e2:c0:
         79:7b:7e:6c:4c:c4:27:2c:d2:00:fd:bd:a4:e0:9b:9a:14:fe:
         34:81:67:5e:88:9d:ff:d2:a2:b5:ed:52:1f:77:14:9a:a8:06:
         ab:01:57:12:22:27:b1:3c:51:73:f0:85:2f:e8:ec:c8:3b:4d:
         ce:1d:06:fb:29:81:5d:3a:fb:95:2f:4c:2b:b7:2d:fe:0d:35:
         a1:c5:a0:7d:96:b7:64:22:f9:8b:94:71:81:0d:43:f4:c5:fc:
         52:18:0d:7d:da:a9:88:ac:d0:22:d2:c1:25:b9:39:02:1c:1e:
         23:04:5d:aa:45:b8:bd:34:c5:91:f2:29:62:eb:91:e2:4f:df:
         bb:71:a4:63
-----BEGIN CERTIFICATE-----
MIIDYTCCAkmgAwIBAgIQB8hoBAdLW80Oevf8saVpYTANBgkqhkiG9w0BAQsFADAR
MQ8wDQYDVQQDDAZteV9yc2EwHhcNMjMxMjE4MTk1MjEyWhcNMjYxMjAyMTk1MjEy
WjATMREwDwYDVQQDDAhteXNlcnZlcjCCASIwDQYJKoZIhvcNAQEBBQADggEPADCC
AQoCggEBAOvQQrvlLc43jxdg1gz22X8KxkUQM0ryWpPvxqXcBMmnGKEn409hEh92
S5VCmmfkJEPiVYRRuMsc/MsFa27CYV4XHstM/h7TCqrCLRlCcSOyh4S0/0q1Ssrf
kZgVPOiWrRJ5tFFdAf7DNeXp3VDHaPQ6nCFBjA1CAioPnWXuD63N2jifVJKeZOHC
vzKTNsCTtSpDxtFouLYLc8fccl4VjtlRpCyR9j/n9CsQq4err8LV000RnxAAPgfz
epcx4S6WGhlf1obPeD9+OMSU4L3ySTbfhZceENW4fj86ujyoryCQQPcLM6o78bkf
D/EoXorOvaC6Cq6cxndtJFJ+XWqjWIECAwEAAaOBsjCBrzAJBgNVHRMEAjAAMB0G
A1UdDgQWBBSV4JHjwt+SUNzTTbFXh/daRrBdfzBMBgNVHSMERTBDgBQvWLBAyi+P
gdy70ePPSbgTBeSYZqEVpBMwETEPMA0GA1UEAwwGbXlfcnNhghQPp+VWYhcouUWf
dF1dGsiwPW4mnzATBgNVHSUEDDAKBggrBgEFBQcDATALBgNVHQ8EBAMCBaAwEwYD
VR0RBAwwCoIIbXlzZXJ2ZXIwDQYJKoZIhvcNAQELBQADggEBAJnHGaiWfGCMAelY
1fmlVimC3S5Ab4NT7089A6uYvZ8VET3l2rR5h5NITiPJa2N2cdM5c7OjrHAMfw+Z
3LXSxWtmyupUUlq7ixpOoSNAmjVhTBQNZoJYQXQkcB6kkL2GgXuQ734X0+kuvdV5
lcGWefP6Mu1d+u9uwPNLPOriwHl7fmxMxCcs0gD9vaTgm5oU/jSBZ16Inf/SorXt
Uh93FJqoBqsBVxIiJ7E8UXPwhS/o7Mg7Tc4dBvspgV06+5UvTCu3Lf4NNaHFoH2W
t2Qi+YuUcYENQ/TF/FIYDX3aqYis0CLSwSW5OQIcHiMEXapFuL00xZHyKWLrkeJP
37txpGM=
-----END CERTIFICATE-----
