Certificate:
    Data:
        Version: 3 (0x2)
        Serial Number:
            a1:db:2e:f6:ee:cc:35:0d:69:34:c9:c9:bd:0a:46:1f
        Signature Algorithm: sha256WithRSAEncryption
        Issuer: CN=1918975
        Validity
            Not Before: Dec 21 02:42:14 2024 GMT
            Not After : Mar 26 02:42:14 2027 GMT
        Subject: CN=vpn_server
        Subject Public Key Info:
            Public Key Algorithm: rsaEncryption
                Public-Key: (2048 bit)
                Modulus:
                    00:a7:e8:30:eb:4b:fa:76:af:09:80:e3:cc:46:04:
                    d9:24:12:ef:66:05:ea:15:05:a5:9c:a9:cd:20:95:
                    86:d0:af:e7:87:0f:aa:84:cd:d1:a4:f1:ed:64:29:
                    ce:4d:4f:cc:bf:d4:09:cd:67:fb:de:5e:25:9d:bd:
                    63:06:23:70:9f:bf:7f:e1:94:9c:d7:01:de:b8:23:
                    b5:a8:cf:cf:02:22:91:99:49:02:42:32:be:12:d5:
                    45:a8:42:01:22:37:cf:1a:55:e2:f3:c6:60:e8:d0:
                    ee:29:b0:12:c9:bc:e9:33:5d:99:14:d7:8c:23:a4:
                    e8:a5:ec:a8:77:73:8e:53:d5:85:f6:84:8c:3c:7f:
                    af:4e:90:c0:84:23:f7:9c:df:62:79:c4:98:77:3c:
                    21:11:fa:cc:d9:da:b2:9d:4f:9c:37:e7:fc:8f:e4:
                    4c:6d:84:7d:02:cf:71:d6:db:aa:f0:d8:0e:dc:93:
                    55:42:eb:68:a0:3a:83:53:66:83:93:2e:8e:5f:e3:
                    84:9b:62:cf:46:ed:d2:5a:d1:9e:60:1e:46:6d:71:
                    ce:3c:ec:69:cd:10:22:0e:ad:79:eb:ac:e6:6f:f7:
                    de:0f:93:1c:01:2e:01:ab:27:ec:36:b3:0b:26:49:
                    dd:e4:32:8b:bb:fc:68:08:f3:6a:99:bd:2e:a2:3c:
                    0c:d1
                Exponent: 65537 (0x10001)
        X509v3 extensions:
            X509v3 Basic Constraints: 
                CA:FALSE
            X509v3 Subject Key Identifier: 
                3A:46:2E:FC:3A:24:88:A1:92:A3:45:E5:1B:42:75:B8:CD:33:D1:E3
            X509v3 Authority Key Identifier: 
                keyid:C1:4F:C1:58:2F:AB:34:CA:33:77:4C:CD:EE:2B:BC:A2:E7:09:B0:B7
                DirName:/CN=1918975
                serial:3A:65:07:3E:8C:78:ED:AA:CA:49:12:E6:7A:AD:43:F0:2F:81:71:5D
            X509v3 Extended Key Usage: 
                TLS Web Server Authentication
            X509v3 Key Usage: 
                Digital Signature, Key Encipherment
            X509v3 Subject Alternative Name: 
                DNS:vpn_server
    Signature Algorithm: sha256WithRSAEncryption
    Signature Value:
        2c:d4:cc:d9:7a:b7:b3:e0:64:7e:cd:19:d1:0f:64:df:6a:e4:
        1d:27:76:b4:58:02:3b:d5:2f:ff:30:41:0d:c3:97:ee:3c:61:
        3b:c7:87:88:01:03:71:69:65:0e:e6:ec:d4:97:cb:ea:5b:8c:
        02:f4:55:56:c2:29:92:e9:64:41:e1:77:78:09:6a:8e:53:38:
        d2:a5:c6:f9:67:b3:84:86:1c:1b:89:23:c6:21:29:37:11:cb:
        bb:8c:60:66:47:70:cf:4e:e7:db:3f:f5:cf:ac:89:0d:34:bf:
        75:96:2c:03:0a:4a:0c:62:89:21:4d:58:e7:e5:04:99:22:7b:
        2a:92:38:33:0a:a2:82:91:69:71:6c:84:0d:f1:1e:51:0a:ac:
        0e:e6:49:97:fe:ea:ff:43:3c:70:4c:23:71:ff:13:47:3f:8d:
        4c:71:75:d0:ed:62:52:82:28:eb:f7:00:ff:16:86:34:5a:27:
        87:82:0f:ee:d8:22:90:e7:c9:b9:85:4d:a1:85:61:ea:49:b2:
        ac:5b:94:9a:2f:22:cb:d3:39:a2:ce:d5:de:fb:60:98:e2:6c:
        a5:45:77:2c:30:98:ef:8e:6b:4a:1c:21:3d:1f:15:d9:0a:96:
        c0:c0:75:7a:84:83:23:ba:ec:48:73:84:7b:82:13:7a:36:df:
        f6:41:24:89
-----BEGIN CERTIFICATE-----
MIIDaDCCAlCgAwIBAgIRAKHbLvbuzDUNaTTJyb0KRh8wDQYJKoZIhvcNAQELBQAw
EjEQMA4GA1UEAwwHMTkxODk3NTAeFw0yNDEyMjEwMjQyMTRaFw0yNzAzMjYwMjQy
MTRaMBUxEzARBgNVBAMMCnZwbl9zZXJ2ZXIwggEiMA0GCSqGSIb3DQEBAQUAA4IB
DwAwggEKAoIBAQCn6DDrS/p2rwmA48xGBNkkEu9mBeoVBaWcqc0glYbQr+eHD6qE
zdGk8e1kKc5NT8y/1AnNZ/veXiWdvWMGI3Cfv3/hlJzXAd64I7Woz88CIpGZSQJC
Mr4S1UWoQgEiN88aVeLzxmDo0O4psBLJvOkzXZkU14wjpOil7Kh3c45T1YX2hIw8
f69OkMCEI/ec32J5xJh3PCER+szZ2rKdT5w35/yP5ExthH0Cz3HW26rw2A7ck1VC
62igOoNTZoOTLo5f44SbYs9G7dJa0Z5gHkZtcc487GnNECIOrXnrrOZv994PkxwB
LgGrJ+w2swsmSd3kMou7/GgI82qZvS6iPAzRAgMBAAGjgbUwgbIwCQYDVR0TBAIw
ADAdBgNVHQ4EFgQUOkYu/DokiKGSo0XlG0J1uM0z0eMwTQYDVR0jBEYwRIAUwU/B
WC+rNMozd0zN7iu8oucJsLehFqQUMBIxEDAOBgNVBAMMBzE5MTg5NzWCFDplBz6M
eO2qykkS5nqtQ/AvgXFdMBMGA1UdJQQMMAoGCCsGAQUFBwMBMAsGA1UdDwQEAwIF
oDAVBgNVHREEDjAMggp2cG5fc2VydmVyMA0GCSqGSIb3DQEBCwUAA4IBAQAs1MzZ
erez4GR+zRnRD2TfauQdJ3a0WAI71S//MEENw5fuPGE7x4eIAQNxaWUO5uzUl8vq
W4wC9FVWwimS6WRB4Xd4CWqOUzjSpcb5Z7OEhhwbiSPGISk3Ecu7jGBmR3DPTufb
P/XPrIkNNL91liwDCkoMYokhTVjn5QSZInsqkjgzCqKCkWlxbIQN8R5RCqwO5kmX
/ur/QzxwTCNx/xNHP41McXXQ7WJSgijr9wD/FoY0WieHgg/u2CKQ58m5hU2hhWHq
SbKsW5SaLyLL0zmiztXe+2CY4mylRXcsMJjvjmtKHCE9HxXZCpbAwHV6hIMjuuxI
c4R7ghN6Nt/2QSSJ
-----END CERTIFICATE-----
